target datalayout = "e-m:e-p270:32:32-p271:32:32-p272:64:64-i64:64-i128:128-f80:128-n8:16:32:64-S128"
target triple = "x86_64-pc-linux-gnu"

%struct.archive_read_disk = type { %struct.archive, ptr, i8, i8, ptr, ptr, ptr, ptr, i32, ptr, ptr, ptr, ptr, ptr, ptr, ptr, ptr, ptr, ptr, ptr }
%struct.archive = type { i32, i32, ptr, i32, ptr, i32, i32, ptr, %struct.archive_string, ptr, i32, i32, ptr, ptr, i64, i64, i64, i8, i64 }
%struct.archive_string = type { ptr, i64, i64 }
%struct.tree = type { ptr, ptr, ptr, ptr, i32, i32, i32, %struct.archive_string, ptr, i64, i32, i32, i32, i32, i32, %struct.stat, %struct.stat, i32, i32, %struct.restore_time, ptr, ptr, i32, i32, i8, i8, ptr, ptr, i32, i32, i32, i32, i32, i32, i64, i64, ptr, i64 }
%struct.stat = type { i64, i64, i64, i32, i32, i32, i32, i64, i64, i64, i64, %struct.timespec, %struct.timespec, %struct.timespec, [3 x i64] }
%struct.timespec = type { i64, i64 }
%struct.restore_time = type { ptr, i64, i64, i64, i64, i32, i32 }

@.str.7 = private unnamed_addr constant [32 x i8] c"archive_read_disk_restore_atime\00", align 1
@.str.8 = private unnamed_addr constant [31 x i8] c"archive_read_disk_honor_nodump\00", align 1

; Function Attrs: nounwind uwtable
define dso_local i32 @archive_read_disk_set_atime_restored(ptr noundef %0) #0 {
  %2 = alloca i32, align 4
  %3 = alloca ptr, align 8
  %4 = alloca ptr, align 8
  %5 = alloca i32, align 4
  store ptr %0, ptr %3, align 8
  %6 = load ptr, ptr %3, align 8
  store ptr %6, ptr %4, align 8
  br label %7

7:                                                ; preds = %1
  %8 = load ptr, ptr %3, align 8
  %9 = call i32 @__archive_check_magic(ptr noundef %8, i32 noundef 195932357, i32 noundef 32767, ptr noundef @.str.7)
  store i32 %9, ptr %5, align 4
  %10 = load i32, ptr %5, align 4
  %11 = icmp eq i32 %10, -30
  br i1 %11, label %12, label %13

12:                                               ; preds = %7
  store i32 -30, ptr %2, align 4
  br label %31

13:                                               ; preds = %7
  br label %14

14:                                               ; preds = %13
  %15 = load ptr, ptr %4, align 8
  %16 = getelementptr inbounds %struct.archive_read_disk, ptr %15, i32 0, i32 8
  %17 = load i32, ptr %16, align 8
  %18 = or i32 %17, 1
  store i32 %18, ptr %16, align 8
  %19 = load ptr, ptr %4, align 8
  %20 = getelementptr inbounds %struct.archive_read_disk, ptr %19, i32 0, i32 4
  %21 = load ptr, ptr %20, align 8
  %22 = icmp ne ptr %21, null
  br i1 %22, label %23, label %30

23:                                               ; preds = %14
  %24 = load ptr, ptr %4, align 8
  %25 = getelementptr inbounds %struct.archive_read_disk, ptr %24, i32 0, i32 4
  %26 = load ptr, ptr %25, align 8
  %27 = getelementptr inbounds %struct.tree, ptr %26, i32 0, i32 4
  %28 = load i32, ptr %27, align 8
  %29 = or i32 %28, 128
  store i32 %29, ptr %27, align 8
  br label %30

30:                                               ; preds = %23, %14
  store i32 0, ptr %2, align 4
  br label %31

31:                                               ; preds = %30, %12
  %32 = load i32, ptr %2, align 4
  ret i32 %32
}

; Function Attrs: nounwind uwtable
define dso_local i32 @archive_read_disk_set_behavior(ptr noundef %0, i32 noundef %1) #0 {
  %3 = alloca i32, align 4
  %4 = alloca ptr, align 8
  %5 = alloca i32, align 4
  %6 = alloca ptr, align 8
  %7 = alloca i32, align 4
  %8 = alloca i32, align 4
  store ptr %0, ptr %4, align 8
  store i32 %1, ptr %5, align 4
  %9 = load ptr, ptr %4, align 8
  store ptr %9, ptr %6, align 8
  store i32 0, ptr %7, align 4
  br label %10

10:                                               ; preds = %2
  %11 = load ptr, ptr %4, align 8
  %12 = call i32 @__archive_check_magic(ptr noundef %11, i32 noundef 195932357, i32 noundef 32767, ptr noundef @.str.8)
  store i32 %12, ptr %8, align 4
  %13 = load i32, ptr %8, align 4
  %14 = icmp eq i32 %13, -30
  br i1 %14, label %15, label %16

15:                                               ; preds = %10
  store i32 -30, ptr %3, align 4
  br label %42

16:                                               ; preds = %10
  br label %17

17:                                               ; preds = %16
  %18 = load i32, ptr %5, align 4
  %19 = load ptr, ptr %6, align 8
  %20 = getelementptr inbounds %struct.archive_read_disk, ptr %19, i32 0, i32 8
  store i32 %18, ptr %20, align 8
  %21 = load i32, ptr %5, align 4
  %22 = and i32 %21, 1
  %23 = icmp ne i32 %22, 0
  br i1 %23, label %24, label %27

24:                                               ; preds = %17
  %25 = load ptr, ptr %4, align 8
  %26 = call i32 @archive_read_disk_set_atime_restored(ptr noundef %25)
  store i32 %26, ptr %7, align 4
  br label %40

27:                                               ; preds = %17
  %28 = load ptr, ptr %6, align 8
  %29 = getelementptr inbounds %struct.archive_read_disk, ptr %28, i32 0, i32 4
  %30 = load ptr, ptr %29, align 8
  %31 = icmp ne ptr %30, null
  br i1 %31, label %32, label %39

32:                                               ; preds = %27
  %33 = load ptr, ptr %6, align 8
  %34 = getelementptr inbounds %struct.archive_read_disk, ptr %33, i32 0, i32 4
  %35 = load ptr, ptr %34, align 8
  %36 = getelementptr inbounds %struct.tree, ptr %35, i32 0, i32 4
  %37 = load i32, ptr %36, align 8
  %38 = and i32 %37, -129
  store i32 %38, ptr %36, align 8
  br label %39

39:                                               ; preds = %32, %27
  br label %40

40:                                               ; preds = %39, %24
  %41 = load i32, ptr %7, align 4
  store i32 %41, ptr %3, align 4
  br label %42

42:                                               ; preds = %40, %15
  %43 = load i32, ptr %3, align 4
  ret i32 %43
}