; Function Attrs: nounwind uwtable
define dso_local range(i32 -30, 1) i32 @archive_read_disk_set_behavior(ptr noundef %0, i32 noundef %1) local_unnamed_addr #0 {
  %3 = tail call i32 @__archive_check_magic(ptr noundef %0, i32 noundef 195932357, i32 noundef 32767, ptr noundef nonnull @.str.8) #17
  %4 = icmp eq i32 %3, -30
  br i1 %4, label %archive_read_disk_set_atime_restored.exit, label %5

5:                                                ; preds = %2
  %6 = getelementptr inbounds nuw i8, ptr %0, i64 192
  store i32 %1, ptr %6, align 8
  %7 = and i32 %1, 1
  %.not = icmp eq i32 %7, 0
  br i1 %.not, label %20, label %8

8:                                                ; preds = %5
  %9 = tail call i32 @__archive_check_magic(ptr noundef nonnull %0, i32 noundef 195932357, i32 noundef 32767, ptr noundef nonnull @.str.7) #17
  %10 = icmp eq i32 %9, -30
  br i1 %10, label %archive_read_disk_set_atime_restored.exit, label %11

11:                                               ; preds = %8
  %12 = load i32, ptr %6, align 8
  %13 = or i32 %12, 1
  store i32 %13, ptr %6, align 8
  %14 = getelementptr inbounds nuw i8, ptr %0, i64 160
  %15 = load ptr, ptr %14, align 8
  %.not.i = icmp eq ptr %15, null
  br i1 %.not.i, label %archive_read_disk_set_atime_restored.exit, label %16

16:                                               ; preds = %11
  %17 = getelementptr inbounds nuw i8, ptr %15, i64 32
  %18 = load i32, ptr %17, align 8
  %19 = or i32 %18, 128
  store i32 %19, ptr %17, align 8
  br label %archive_read_disk_set_atime_restored.exit

20:                                               ; preds = %5
  %21 = getelementptr inbounds nuw i8, ptr %0, i64 160
  %22 = load ptr, ptr %21, align 8
  %.not12 = icmp eq ptr %22, null
  br i1 %.not12, label %archive_read_disk_set_atime_restored.exit, label %23

23:                                               ; preds = %20
  %24 = getelementptr inbounds nuw i8, ptr %22, i64 32
  %25 = load i32, ptr %24, align 8
  %26 = and i32 %25, -129
  store i32 %26, ptr %24, align 8
  br label %archive_read_disk_set_atime_restored.exit

archive_read_disk_set_atime_restored.exit:        ; preds = %16, %11, %8, %23, %20, %2
  %.0 = phi i32 [ -30, %2 ], [ 0, %23 ], [ 0, %20 ], [ -30, %8 ], [ 0, %16 ], [ 0, %11 ]
  ret i32 %.0
}